; Function Attrs: nounwind uwtable
define ptr @Cudd_BiasedUnderApprox(ptr noundef initializes((448, 452)) %0, ptr noundef %1, ptr noundef %2, i32 noundef %3, i32 noundef %4, double noundef %5, double noundef %6) local_unnamed_addr #0 {
  %8 = getelementptr inbounds nuw i8, ptr %0, i64 448
  br label %9

9:                                                ; preds = %9, %7
  store i32 0, ptr %8, align 8, !tbaa !3
  %10 = tail call ptr @cuddBiasedUnderApprox(ptr noundef %0, ptr noundef %1, ptr noundef %2, i32 noundef %3, i32 noundef %4, double noundef %5, double noundef %6)
  %11 = load i32, ptr %8, align 8, !tbaa !3
  %12 = icmp eq i32 %11, 1
  br i1 %12, label %9, label %13, !llvm.loop !64

13:                                               ; preds = %9
  ret ptr %10
}